target datalayout = "e-m:e-p270:32:32-p271:32:32-p272:64:64-i64:64-i128:128-f80:128-n8:16:32:64-S128"
target triple = "x86_64-pc-linux-gnu"

%struct._stat_tap_table_ui = type { i32, ptr, ptr, ptr, ptr, ptr, ptr, ptr, ptr, i64, ptr, i64, ptr, ptr, i32 }
%struct._table_stat_t = type { ptr, %struct._stat_data_t }
%struct._stat_data_t = type { ptr, ptr }
%struct._stat_tap_table_item = type { i32, i32, ptr, ptr }
%struct._GArray = type { ptr, i32 }
%struct._stat_tap_table = type { ptr, ptr, i32, i32, ptr }
%struct._stat_tap_table_item_type = type { i32, %union.anon, %union.anon.0 }
%union.anon = type { ptr }
%union.anon.0 = type { ptr }

@.str.2 = private unnamed_addr constant [2 x i8] c"\0A\00", align 1
@.str.3 = private unnamed_addr constant [103 x i8] c"=====================================================================================================\0A\00", align 1
@.str.4 = private unnamed_addr constant [5 x i8] c"%s:\0A\00", align 1
@.str.5 = private unnamed_addr constant [27 x i8] c"Filter for statistics: %s\0A\00", align 1
@.str.6 = private unnamed_addr constant [1 x i8] zeroinitializer, align 1
@.str.7 = private unnamed_addr constant [5 x i8] c"%s |\00", align 1
@.str.8 = private unnamed_addr constant [4 x i8] c"%s\0A\00", align 1

; Function Attrs: null_pointer_is_valid sspstrong uwtable
define internal void @simple_draw(ptr noundef %0) #0 {
  %2 = alloca ptr, align 8
  %3 = alloca ptr, align 8
  %4 = alloca ptr, align 8
  %5 = alloca i64, align 8
  %6 = alloca i32, align 4
  %7 = alloca i32, align 4
  %8 = alloca i32, align 4
  %9 = alloca ptr, align 8
  %10 = alloca ptr, align 8
  %11 = alloca ptr, align 8
  %12 = alloca [250 x i8], align 16
  store ptr %0, ptr %2, align 8
  call void @llvm.lifetime.start.p0(i64 8, ptr %3) #7
  %13 = load ptr, ptr %2, align 8
  store ptr %13, ptr %3, align 8
  call void @llvm.lifetime.start.p0(i64 8, ptr %4) #7
  %14 = load ptr, ptr %3, align 8
  %15 = getelementptr inbounds nuw %struct._stat_data_t, ptr %14, i32 0, i32 1
  %16 = load ptr, ptr %15, align 8
  store ptr %16, ptr %4, align 8
  call void @llvm.lifetime.start.p0(i64 8, ptr %5) #7
  call void @llvm.lifetime.start.p0(i64 4, ptr %6) #7
  call void @llvm.lifetime.start.p0(i64 4, ptr %7) #7
  call void @llvm.lifetime.start.p0(i64 4, ptr %8) #7
  call void @llvm.lifetime.start.p0(i64 8, ptr %9) #7
  call void @llvm.lifetime.start.p0(i64 8, ptr %10) #7
  call void @llvm.lifetime.start.p0(i64 8, ptr %11) #7
  call void @llvm.lifetime.start.p0(i64 250, ptr %12) #7
  %17 = call i32 (i32, ptr, ...) @__printf_chk(i32 noundef 2, ptr noundef @.str.2)
  %18 = call i32 (i32, ptr, ...) @__printf_chk(i32 noundef 2, ptr noundef @.str.3)
  %19 = load ptr, ptr %3, align 8
  %20 = getelementptr inbounds nuw %struct._stat_data_t, ptr %19, i32 0, i32 0
  %21 = load ptr, ptr %20, align 8
  %22 = getelementptr inbounds nuw %struct._stat_tap_table_ui, ptr %21, i32 0, i32 1
  %23 = load ptr, ptr %22, align 8
  %24 = call i32 (i32, ptr, ...) @__printf_chk(i32 noundef 2, ptr noundef @.str.4, ptr noundef %23)
  %25 = load ptr, ptr %4, align 8
  %26 = getelementptr inbounds nuw %struct._table_stat_t, ptr %25, i32 0, i32 0
  %27 = load ptr, ptr %26, align 8
  %28 = icmp ne ptr %27, null
  br i1 %28, label %29, label %33

29:                                               ; preds = %1
  %30 = load ptr, ptr %4, align 8
  %31 = getelementptr inbounds nuw %struct._table_stat_t, ptr %30, i32 0, i32 0
  %32 = load ptr, ptr %31, align 8
  br label %34

33:                                               ; preds = %1
  br label %34

34:                                               ; preds = %33, %29
  %35 = phi ptr [ %32, %29 ], [ @.str.6, %33 ]
  %36 = call i32 (i32, ptr, ...) @__printf_chk(i32 noundef 2, ptr noundef @.str.5, ptr noundef %35)
  store i64 0, ptr %5, align 8
  %37 = load ptr, ptr %3, align 8
  %38 = getelementptr inbounds nuw %struct._stat_data_t, ptr %37, i32 0, i32 0
  %39 = load ptr, ptr %38, align 8
  %40 = getelementptr inbounds nuw %struct._stat_tap_table_ui, ptr %39, i32 0, i32 10
  %41 = load ptr, ptr %40, align 8
  store ptr %41, ptr %9, align 8
  br label %42

42:                                               ; preds = %55, %34
  %43 = load i64, ptr %5, align 8
  %44 = load ptr, ptr %3, align 8
  %45 = getelementptr inbounds nuw %struct._stat_data_t, ptr %44, i32 0, i32 0
  %46 = load ptr, ptr %45, align 8
  %47 = getelementptr inbounds nuw %struct._stat_tap_table_ui, ptr %46, i32 0, i32 9
  %48 = load i64, ptr %47, align 8
  %49 = icmp ult i64 %43, %48
  br i1 %49, label %50, label %60

50:                                               ; preds = %42
  %51 = load ptr, ptr %9, align 8
  %52 = getelementptr inbounds nuw %struct._stat_tap_table_item, ptr %51, i32 0, i32 2
  %53 = load ptr, ptr %52, align 8
  %54 = call i32 (i32, ptr, ...) @__printf_chk(i32 noundef 2, ptr noundef @.str.7, ptr noundef %53)
  br label %55

55:                                               ; preds = %50
  %56 = load i64, ptr %5, align 8
  %57 = add i64 %56, 1
  store i64 %57, ptr %5, align 8
  %58 = load ptr, ptr %9, align 8
  %59 = getelementptr %struct._stat_tap_table_item, ptr %58, i32 1
  store ptr %59, ptr %9, align 8
  br label %42, !llvm.loop !7

60:                                               ; preds = %42
  %61 = call i32 (i32, ptr, ...) @__printf_chk(i32 noundef 2, ptr noundef @.str.2)
  store i32 0, ptr %6, align 4
  br label %62

62:                                               ; preds = %167, %60
  %63 = load i32, ptr %6, align 4
  %64 = load ptr, ptr %3, align 8
  %65 = getelementptr inbounds nuw %struct._stat_data_t, ptr %64, i32 0, i32 0
  %66 = load ptr, ptr %65, align 8
  %67 = getelementptr inbounds nuw %struct._stat_tap_table_ui, ptr %66, i32 0, i32 13
  %68 = load ptr, ptr %67, align 8
  %69 = getelementptr inbounds nuw %struct._GArray, ptr %68, i32 0, i32 1
  %70 = load i32, ptr %69, align 8
  %71 = icmp ult i32 %63, %70
  br i1 %71, label %72, label %170

72:                                               ; preds = %62
  %73 = load ptr, ptr %3, align 8
  %74 = getelementptr inbounds nuw %struct._stat_data_t, ptr %73, i32 0, i32 0
  %75 = load ptr, ptr %74, align 8
  %76 = getelementptr inbounds nuw %struct._stat_tap_table_ui, ptr %75, i32 0, i32 13
  %77 = load ptr, ptr %76, align 8
  %78 = getelementptr inbounds nuw %struct._GArray, ptr %77, i32 0, i32 0
  %79 = load ptr, ptr %78, align 8
  %80 = load i32, ptr %6, align 4
  %81 = zext i32 %80 to i64
  %82 = getelementptr ptr, ptr %79, i64 %81
  %83 = load ptr, ptr %82, align 8
  store ptr %83, ptr %10, align 8
  %84 = load ptr, ptr %10, align 8
  %85 = getelementptr inbounds nuw %struct._stat_tap_table, ptr %84, i32 0, i32 0
  %86 = load ptr, ptr %85, align 8
  %87 = call i32 (i32, ptr, ...) @__printf_chk(i32 noundef 2, ptr noundef @.str.8, ptr noundef %86)
  store i32 0, ptr %7, align 4
  br label %88

88:                                               ; preds = %163, %72
  %89 = load i32, ptr %7, align 4
  %90 = load ptr, ptr %10, align 8
  %91 = getelementptr inbounds nuw %struct._stat_tap_table, ptr %90, i32 0, i32 3
  %92 = load i32, ptr %91, align 4
  %93 = icmp ult i32 %89, %92
  br i1 %93, label %94, label %166

94:                                               ; preds = %88
  store i32 0, ptr %8, align 4
  %95 = load ptr, ptr %3, align 8
  %96 = getelementptr inbounds nuw %struct._stat_data_t, ptr %95, i32 0, i32 0
  %97 = load ptr, ptr %96, align 8
  %98 = getelementptr inbounds nuw %struct._stat_tap_table_ui, ptr %97, i32 0, i32 10
  %99 = load ptr, ptr %98, align 8
  store ptr %99, ptr %9, align 8
  br label %100

100:                                              ; preds = %156, %94
  %101 = load i32, ptr %8, align 4
  %102 = load ptr, ptr %10, align 8
  %103 = getelementptr inbounds nuw %struct._stat_tap_table, ptr %102, i32 0, i32 2
  %104 = load i32, ptr %103, align 8
  %105 = icmp ult i32 %101, %104
  br i1 %105, label %106, label %161

106:                                              ; preds = %100
  %107 = load ptr, ptr %10, align 8
  %108 = load i32, ptr %7, align 4
  %109 = load i32, ptr %8, align 4
  %110 = call ptr @stat_tap_get_field_data(ptr noundef %107, i32 noundef %108, i32 noundef %109)
  store ptr %110, ptr %11, align 8
  %111 = load ptr, ptr %11, align 8
  %112 = getelementptr inbounds nuw %struct._stat_tap_table_item_type, ptr %111, i32 0, i32 0
  %113 = load i32, ptr %112, align 8
  %114 = icmp eq i32 %113, 0
  br i1 %114, label %115, label %116

115:                                              ; preds = %106
  br label %161

116:                                              ; preds = %106
  %117 = getelementptr inbounds [250 x i8], ptr %12, i64 0, i64 0
  %118 = load ptr, ptr %9, align 8
  %119 = getelementptr inbounds nuw %struct._stat_tap_table_item, ptr %118, i32 0, i32 3
  %120 = load ptr, ptr %119, align 8
  %121 = call i32 (ptr, i64, i32, i64, ptr, ...) @__snprintf_chk(ptr noundef %117, i64 noundef 250, i32 noundef 2, i64 noundef 250, ptr noundef @.str.7, ptr noundef %120)
  %122 = load ptr, ptr %9, align 8
  %123 = getelementptr inbounds nuw %struct._stat_tap_table_item, ptr %122, i32 0, i32 0
  %124 = load i32, ptr %123, align 8
  switch i32 %124, label %155 [
    i32 1, label %125
    i32 2, label %131
    i32 3, label %137
    i32 4, label %143
    i32 5, label %149
    i32 0, label %155
  ]

125:                                              ; preds = %116
  %126 = getelementptr inbounds [250 x i8], ptr %12, i64 0, i64 0
  %127 = load ptr, ptr %11, align 8
  %128 = getelementptr inbounds nuw %struct._stat_tap_table_item_type, ptr %127, i32 0, i32 1
  %129 = load i32, ptr %128, align 8
  %130 = call i32 (i32, ptr, ...) @__printf_chk(i32 noundef 2, ptr noundef %126, i32 noundef %129)
  br label %155

131:                                              ; preds = %116
  %132 = getelementptr inbounds [250 x i8], ptr %12, i64 0, i64 0
  %133 = load ptr, ptr %11, align 8
  %134 = getelementptr inbounds nuw %struct._stat_tap_table_item_type, ptr %133, i32 0, i32 1
  %135 = load i32, ptr %134, align 8
  %136 = call i32 (i32, ptr, ...) @__printf_chk(i32 noundef 2, ptr noundef %132, i32 noundef %135)
  br label %155

137:                                              ; preds = %116
  %138 = getelementptr inbounds [250 x i8], ptr %12, i64 0, i64 0
  %139 = load ptr, ptr %11, align 8
  %140 = getelementptr inbounds nuw %struct._stat_tap_table_item_type, ptr %139, i32 0, i32 1
  %141 = load ptr, ptr %140, align 8
  %142 = call i32 (i32, ptr, ...) @__printf_chk(i32 noundef 2, ptr noundef %138, ptr noundef %141)
  br label %155

143:                                              ; preds = %116
  %144 = getelementptr inbounds [250 x i8], ptr %12, i64 0, i64 0
  %145 = load ptr, ptr %11, align 8
  %146 = getelementptr inbounds nuw %struct._stat_tap_table_item_type, ptr %145, i32 0, i32 1
  %147 = load double, ptr %146, align 8
  %148 = call i32 (i32, ptr, ...) @__printf_chk(i32 noundef 2, ptr noundef %144, double noundef %147)
  br label %155

149:                                              ; preds = %116
  %150 = getelementptr inbounds [250 x i8], ptr %12, i64 0, i64 0
  %151 = load ptr, ptr %11, align 8
  %152 = getelementptr inbounds nuw %struct._stat_tap_table_item_type, ptr %151, i32 0, i32 1
  %153 = load i32, ptr %152, align 8
  %154 = call i32 (i32, ptr, ...) @__printf_chk(i32 noundef 2, ptr noundef %150, i32 noundef %153)
  br label %155

155:                                              ; preds = %116, %116, %149, %143, %137, %131, %125
  br label %156

156:                                              ; preds = %155
  %157 = load i32, ptr %8, align 4
  %158 = add i32 %157, 1
  store i32 %158, ptr %8, align 4
  %159 = load ptr, ptr %9, align 8
  %160 = getelementptr %struct._stat_tap_table_item, ptr %159, i32 1
  store ptr %160, ptr %9, align 8
  br label %100, !llvm.loop !9

161:                                              ; preds = %115, %100
  %162 = call i32 (i32, ptr, ...) @__printf_chk(i32 noundef 2, ptr noundef @.str.2)
  br label %163

163:                                              ; preds = %161
  %164 = load i32, ptr %7, align 4
  %165 = add i32 %164, 1
  store i32 %165, ptr %7, align 4
  br label %88, !llvm.loop !10

166:                                              ; preds = %88
  br label %167

167:                                              ; preds = %166
  %168 = load i32, ptr %6, align 4
  %169 = add i32 %168, 1
  store i32 %169, ptr %6, align 4
  br label %62, !llvm.loop !11

170:                                              ; preds = %62
  %171 = call i32 (i32, ptr, ...) @__printf_chk(i32 noundef 2, ptr noundef @.str.3)
  call void @llvm.lifetime.end.p0(i64 250, ptr %12) #7
  call void @llvm.lifetime.end.p0(i64 8, ptr %11) #7
  call void @llvm.lifetime.end.p0(i64 8, ptr %10) #7
  call void @llvm.lifetime.end.p0(i64 8, ptr %9) #7
  call void @llvm.lifetime.end.p0(i64 4, ptr %8) #7
  call void @llvm.lifetime.end.p0(i64 4, ptr %7) #7
  call void @llvm.lifetime.end.p0(i64 4, ptr %6) #7
  call void @llvm.lifetime.end.p0(i64 8, ptr %5) #7
  call void @llvm.lifetime.end.p0(i64 8, ptr %4) #7
  call void @llvm.lifetime.end.p0(i64 8, ptr %3) #7
  ret void
}